target datalayout = "e-m:e-p270:32:32-p271:32:32-p272:64:64-i64:64-i128:128-f80:128-n8:16:32:64-S128"
target triple = "x86_64-pc-linux-gnu"

@.str = private unnamed_addr constant [35 x i8] c"../openssl/crypto/rand/prov_seed.c\00", align 1
@__func__.ossl_rand_get_nonce = private unnamed_addr constant [20 x i8] c"ossl_rand_get_nonce\00", align 1

; Function Attrs: nounwind uwtable
define i64 @ossl_rand_get_nonce(ptr noundef %0, ptr noundef %1, i64 noundef %2, i64 noundef %3, ptr noundef %4, i64 noundef %5) #0 {
  %7 = alloca i64, align 8
  %8 = alloca ptr, align 8
  %9 = alloca ptr, align 8
  %10 = alloca i64, align 8
  %11 = alloca i64, align 8
  %12 = alloca ptr, align 8
  %13 = alloca i64, align 8
  %14 = alloca i64, align 8
  %15 = alloca ptr, align 8
  %16 = alloca i32, align 4
  store ptr %0, ptr %8, align 8, !tbaa !3
  store ptr %1, ptr %9, align 8, !tbaa !8
  store i64 %2, ptr %10, align 8, !tbaa !12
  store i64 %3, ptr %11, align 8, !tbaa !12
  store ptr %4, ptr %12, align 8, !tbaa !20
  store i64 %5, ptr %13, align 8, !tbaa !12
  call void @llvm.lifetime.start.p0(i64 8, ptr %14) #3
  store i64 0, ptr %14, align 8, !tbaa !12
  call void @llvm.lifetime.start.p0(i64 8, ptr %15) #3
  %17 = load i64, ptr %10, align 8, !tbaa !12
  %18 = load i64, ptr %11, align 8, !tbaa !12
  %19 = call ptr @ossl_rand_pool_new(i32 noundef 0, i32 noundef 0, i64 noundef %17, i64 noundef %18)
  store ptr %19, ptr %15, align 8, !tbaa !14
  %20 = load ptr, ptr %15, align 8, !tbaa !14
  %21 = icmp eq ptr %20, null
  br i1 %21, label %22, label %23

22:                                               ; preds = %6
  call void @ERR_new()
  call void @ERR_set_debug(ptr noundef @.str, i32 noundef 84, ptr noundef @__func__.ossl_rand_get_nonce)
  call void (i32, i32, ptr, ...) @ERR_set_error(i32 noundef 36, i32 noundef 524324, ptr noundef null)
  store i64 0, ptr %7, align 8
  store i32 1, ptr %16, align 4
  br label %47

23:                                               ; preds = %6
  %24 = load ptr, ptr %15, align 8, !tbaa !14
  %25 = call i32 @ossl_pool_add_nonce_data(ptr noundef %24)
  %26 = icmp ne i32 %25, 0
  br i1 %26, label %28, label %27

27:                                               ; preds = %23
  br label %44

28:                                               ; preds = %23
  %29 = load ptr, ptr %12, align 8, !tbaa !20
  %30 = icmp ne ptr %29, null
  br i1 %30, label %31, label %38

31:                                               ; preds = %28
  %32 = load ptr, ptr %15, align 8, !tbaa !14
  %33 = load ptr, ptr %12, align 8, !tbaa !20
  %34 = load i64, ptr %13, align 8, !tbaa !12
  %35 = call i32 @ossl_rand_pool_add(ptr noundef %32, ptr noundef %33, i64 noundef %34, i64 noundef 0)
  %36 = icmp ne i32 %35, 0
  br i1 %36, label %38, label %37

37:                                               ; preds = %31
  br label %44

38:                                               ; preds = %31, %28
  %39 = load ptr, ptr %15, align 8, !tbaa !14
  %40 = call i64 @ossl_rand_pool_length(ptr noundef %39)
  store i64 %40, ptr %14, align 8, !tbaa !12
  %41 = load ptr, ptr %15, align 8, !tbaa !14
  %42 = call ptr @ossl_rand_pool_detach(ptr noundef %41)
  %43 = load ptr, ptr %9, align 8, !tbaa !8
  store ptr %42, ptr %43, align 8, !tbaa !16
  br label %44

44:                                               ; preds = %38, %37, %27
  %45 = load ptr, ptr %15, align 8, !tbaa !14
  call void @ossl_rand_pool_free(ptr noundef %45)
  %46 = load i64, ptr %14, align 8, !tbaa !12
  store i64 %46, ptr %7, align 8
  store i32 1, ptr %16, align 4
  br label %47

47:                                               ; preds = %44, %22
  call void @llvm.lifetime.end.p0(i64 8, ptr %15) #3
  call void @llvm.lifetime.end.p0(i64 8, ptr %14) #3
  %48 = load i64, ptr %7, align 8
  ret i64 %48
}