; Function Attrs: nounwind uwtable
define i64 @ossl_rand_get_nonce(ptr readnone captures(none) %0, ptr noundef writeonly captures(none) %1, i64 noundef %2, i64 noundef %3, ptr noundef %4, i64 noundef %5) local_unnamed_addr #0 {
  %7 = tail call ptr @ossl_rand_pool_new(i32 noundef 0, i32 noundef 0, i64 noundef %2, i64 noundef %3) #2
  %8 = icmp eq ptr %7, null
  br i1 %8, label %9, label %10

9:                                                ; preds = %6
  tail call void @ERR_new() #2
  tail call void @ERR_set_debug(ptr noundef nonnull @.str, i32 noundef 84, ptr noundef nonnull @__func__.ossl_rand_get_nonce) #2
  tail call void (i32, i32, ptr, ...) @ERR_set_error(i32 noundef 36, i32 noundef 524324, ptr noundef null) #2
  br label %19

10:                                               ; preds = %6
  %11 = tail call i32 @ossl_pool_add_nonce_data(ptr noundef nonnull %7) #2
  %.not = icmp eq i32 %11, 0
  br i1 %.not, label %18, label %12

12:                                               ; preds = %10
  %.not16 = icmp eq ptr %4, null
  br i1 %.not16, label %15, label %13

13:                                               ; preds = %12
  %14 = tail call i32 @ossl_rand_pool_add(ptr noundef nonnull %7, ptr noundef nonnull %4, i64 noundef %5, i64 noundef 0) #2
  %.not17 = icmp eq i32 %14, 0
  br i1 %.not17, label %18, label %15

15:                                               ; preds = %13, %12
  %16 = tail call i64 @ossl_rand_pool_length(ptr noundef nonnull %7) #2
  %17 = tail call ptr @ossl_rand_pool_detach(ptr noundef nonnull %7) #2
  store ptr %17, ptr %1, align 8, !tbaa !3
  br label %18

18:                                               ; preds = %13, %10, %15
  %.013 = phi i64 [ %16, %15 ], [ 0, %13 ], [ 0, %10 ]
  tail call void @ossl_rand_pool_free(ptr noundef nonnull %7) #2
  br label %19

19:                                               ; preds = %18, %9
  %.0 = phi i64 [ 0, %9 ], [ %.013, %18 ]
  ret i64 %.0
}